; ModuleID = '49/834.c'
source_filename = "49/834.c"
target datalayout = "e-m:e-p270:32:32-p271:32:32-p272:64:64-i64:64-f80:128-n8:16:32:64-S128"
target triple = "x86_64-pc-linux-gnu"

@.str = private unnamed_addr constant [4 x i8] c"%s\0A\00", align 1

; Function Attrs: noinline nounwind uwtable
define dso_local i32 @main() #0 {
  %1 = alloca i32, align 4
  %2 = alloca i32, align 4
  %3 = alloca i32, align 4
  %4 = alloca i32, align 4
  %5 = alloca i32, align 4
  %6 = alloca i32, align 4
  %7 = alloca i32, align 4
  %8 = alloca [500 x i8], align 16
  %9 = alloca [500 x i8], align 16
  store i32 0, i32* %1, align 4
  %10 = bitcast [500 x i8]* %9 to i8*
  call void @llvm.memset.p0i8.i64(i8* align 16 %10, i8 0, i64 500, i1 false)
  %11 = getelementptr inbounds [500 x i8], [500 x i8]* %8, i64 0, i64 0
  %12 = call i32 (i8*, ...) bitcast (i32 (...)* @gets to i32 (i8*, ...)*)(i8* %11)
  %13 = getelementptr inbounds [500 x i8], [500 x i8]* %8, i64 0, i64 0
  %14 = call i64 @strlen(i8* %13) #4
  %15 = trunc i64 %14 to i32
  store i32 %15, i32* %4, align 4
  store i32 1, i32* %2, align 4
  br label %16

16:                                               ; preds = %98, %0
  %17 = load i32, i32* %2, align 4
  %18 = load i32, i32* %4, align 4
  %19 = icmp slt i32 %17, %18
  br i1 %19, label %20, label %101

20:                                               ; preds = %16
  store i32 0, i32* %3, align 4
  br label %21

21:                                               ; preds = %94, %20
  %22 = load i32, i32* %3, align 4
  %23 = load i32, i32* %4, align 4
  %24 = load i32, i32* %2, align 4
  %25 = sub nsw i32 %23, %24
  %26 = icmp slt i32 %22, %25
  br i1 %26, label %27, label %97

27:                                               ; preds = %21
  store i32 0, i32* %5, align 4
  br label %28

28:                                               ; preds = %42, %27
  %29 = load i32, i32* %5, align 4
  %30 = load i32, i32* %2, align 4
  %31 = icmp sle i32 %29, %30
  br i1 %31, label %32, label %45

32:                                               ; preds = %28
  %33 = load i32, i32* %3, align 4
  %34 = load i32, i32* %5, align 4
  %35 = add nsw i32 %33, %34
  %36 = sext i32 %35 to i64
  %37 = getelementptr inbounds [500 x i8], [500 x i8]* %8, i64 0, i64 %36
  %38 = load i8, i8* %37, align 1
  %39 = load i32, i32* %5, align 4
  %40 = sext i32 %39 to i64
  %41 = getelementptr inbounds [500 x i8], [500 x i8]* %9, i64 0, i64 %40
  store i8 %38, i8* %41, align 1
  br label %42

42:                                               ; preds = %32
  %43 = load i32, i32* %5, align 4
  %44 = add nsw i32 %43, 1
  store i32 %44, i32* %5, align 4
  br label %28

45:                                               ; preds = %28
  store i32 0, i32* %6, align 4
  br label %46

46:                                               ; preds = %79, %45
  %47 = load i32, i32* %6, align 4
  %48 = load i32, i32* %2, align 4
  %49 = add nsw i32 %48, 1
  %50 = sdiv i32 %49, 2
  %51 = sub nsw i32 %50, 1
  %52 = icmp sle i32 %47, %51
  br i1 %52, label %53, label %82

53:                                               ; preds = %46
  %54 = load i32, i32* %6, align 4
  %55 = sext i32 %54 to i64
  %56 = getelementptr inbounds [500 x i8], [500 x i8]* %9, i64 0, i64 %55
  %57 = load i8, i8* %56, align 1
  %58 = sext i8 %57 to i32
  %59 = load i32, i32* %2, align 4
  %60 = load i32, i32* %6, align 4
  %61 = sub nsw i32 %59, %60
  %62 = sext i32 %61 to i64
  %63 = getelementptr inbounds [500 x i8], [500 x i8]* %9, i64 0, i64 %62
  %64 = load i8, i8* %63, align 1
  %65 = sext i8 %64 to i32
  %66 = icmp ne i32 %58, %65
  br i1 %66, label %67, label %68

67:                                               ; preds = %53
  br label %82

68:                                               ; preds = %53
  %69 = load i32, i32* %6, align 4
  %70 = load i32, i32* %2, align 4
  %71 = add nsw i32 %70, 1
  %72 = sdiv i32 %71, 2
  %73 = sub nsw i32 %72, 1
  %74 = icmp eq i32 %69, %73
  br i1 %74, label %75, label %78

75:                                               ; preds = %68
  %76 = getelementptr inbounds [500 x i8], [500 x i8]* %9, i64 0, i64 0
  %77 = call i32 (i8*, ...) @printf(i8* getelementptr inbounds ([4 x i8], [4 x i8]* @.str, i64 0, i64 0), i8* %76)
  br label %78

78:                                               ; preds = %75, %68
  br label %79

79:                                               ; preds = %78
  %80 = load i32, i32* %6, align 4
  %81 = add nsw i32 %80, 1
  store i32 %81, i32* %6, align 4
  br label %46

82:                                               ; preds = %67, %46
  store i32 0, i32* %7, align 4
  br label %83

83:                                               ; preds = %90, %82
  %84 = load i32, i32* %7, align 4
  %85 = icmp slt i32 %84, 500
  br i1 %85, label %86, label %93

86:                                               ; preds = %83
  %87 = load i32, i32* %7, align 4
  %88 = sext i32 %87 to i64
  %89 = getelementptr inbounds [500 x i8], [500 x i8]* %9, i64 0, i64 %88
  store i8 0, i8* %89, align 1
  br label %90

90:                                               ; preds = %86
  %91 = load i32, i32* %7, align 4
  %92 = add nsw i32 %91, 1
  store i32 %92, i32* %7, align 4
  br label %83

93:                                               ; preds = %83
  br label %94

94:                                               ; preds = %93
  %95 = load i32, i32* %3, align 4
  %96 = add nsw i32 %95, 1
  store i32 %96, i32* %3, align 4
  br label %21

97:                                               ; preds = %21
  br label %98

98:                                               ; preds = %97
  %99 = load i32, i32* %2, align 4
  %100 = add nsw i32 %99, 1
  store i32 %100, i32* %2, align 4
  br label %16

101:                                              ; preds = %16
  ret i32 0
}

; Function Attrs: argmemonly nounwind willreturn
declare void @llvm.memset.p0i8.i64(i8* nocapture writeonly, i8, i64, i1 immarg) #1

declare dso_local i32 @gets(...) #2

; Function Attrs: nounwind readonly
declare dso_local i64 @strlen(i8*) #3

declare dso_local i32 @printf(i8*, ...) #2


!llvm.module.flags = !{!0}
!llvm.ident = !{!1}

!0 = !{i32 1, !"wchar_size", i32 4}
!1 = !{!"clang version 10.0.0-4ubuntu1 "}
